target datalayout = "e-m:e-p270:32:32-p271:32:32-p272:64:64-i64:64-i128:128-f80:128-n8:16:32:64-S128"
target triple = "x86_64-pc-linux-gnu"

; Function Attrs: nounwind uwtable
define dso_local void @bit_set(ptr noundef %0, i64 noundef %1) #0 {
  %3 = alloca ptr, align 8
  %4 = alloca i64, align 8
  store ptr %0, ptr %3, align 8
  store i64 %1, ptr %4, align 8
  br label %5

5:                                                ; preds = %2
  br label %6

6:                                                ; preds = %5
  br label %7

7:                                                ; preds = %6
  br label %8

8:                                                ; preds = %7
  %9 = load i64, ptr %4, align 8
  %10 = and i64 %9, 63
  %11 = shl i64 1, %10
  %12 = load ptr, ptr %3, align 8
  %13 = load i64, ptr %4, align 8
  %14 = ashr i64 %13, 6
  %15 = add nsw i64 %14, 2
  %16 = getelementptr inbounds i64, ptr %12, i64 %15
  %17 = load i64, ptr %16, align 8
  %18 = or i64 %17, %11
  store i64 %18, ptr %16, align 8
  ret void
}

; Function Attrs: nounwind uwtable
define dso_local i64 @bit_fls_from_bit(ptr noundef %0, i64 noundef %1) #0 {
  %3 = alloca i64, align 8
  %4 = alloca ptr, align 8
  %5 = alloca i64, align 8
  %6 = alloca i64, align 8
  %7 = alloca i32, align 4
  %8 = alloca i32, align 4
  store ptr %0, ptr %4, align 8
  store i64 %1, ptr %5, align 8
  call void @llvm.lifetime.start.p0(i64 8, ptr %6) #12
  store i64 -1, ptr %6, align 8
  call void @llvm.lifetime.start.p0(i64 4, ptr %7) #12
  br label %9

9:                                                ; preds = %2
  br label %10

10:                                               ; preds = %9
  br label %11

11:                                               ; preds = %10
  br label %12

12:                                               ; preds = %11
  br label %13

13:                                               ; preds = %12
  br label %14

14:                                               ; preds = %13
  %15 = load ptr, ptr %4, align 8
  %16 = getelementptr inbounds i64, ptr %15, i64 1
  %17 = load i64, ptr %16, align 8
  %18 = icmp eq i64 %17, 0
  br i1 %18, label %19, label %20

19:                                               ; preds = %14
  store i64 -1, ptr %3, align 8
  store i32 1, ptr %8, align 4
  br label %90

20:                                               ; preds = %14
  br label %21

21:                                               ; preds = %51, %20
  %22 = load i64, ptr %5, align 8
  %23 = icmp sge i64 %22, 0
  br i1 %23, label %24, label %33

24:                                               ; preds = %21
  %25 = load i64, ptr %5, align 8
  %26 = ashr i64 %25, 6
  %27 = add nsw i64 %26, 2
  %28 = load i64, ptr %5, align 8
  %29 = add nsw i64 %28, 1
  %30 = ashr i64 %29, 6
  %31 = add nsw i64 %30, 2
  %32 = icmp eq i64 %27, %31
  br label %33

33:                                               ; preds = %24, %21
  %34 = phi i1 [ false, %21 ], [ %32, %24 ]
  br i1 %34, label %35, label %54

35:                                               ; preds = %33
  %36 = load ptr, ptr %4, align 8
  %37 = load i64, ptr %5, align 8
  %38 = ashr i64 %37, 6
  %39 = add nsw i64 %38, 2
  %40 = getelementptr inbounds i64, ptr %36, i64 %39
  %41 = load i64, ptr %40, align 8
  %42 = load i64, ptr %5, align 8
  %43 = and i64 %42, 63
  %44 = shl i64 1, %43
  %45 = and i64 %41, %44
  %46 = icmp ne i64 %45, 0
  br i1 %46, label %47, label %48

47:                                               ; preds = %35
  br i1 true, label %49, label %51

48:                                               ; preds = %35
  br i1 false, label %49, label %51

49:                                               ; preds = %48, %47
  %50 = load i64, ptr %5, align 8
  store i64 %50, ptr %6, align 8
  br label %54

51:                                               ; preds = %48, %47
  %52 = load i64, ptr %5, align 8
  %53 = add nsw i64 %52, -1
  store i64 %53, ptr %5, align 8
  br label %21, !llvm.loop !31

54:                                               ; preds = %49, %33
  br label %55

55:                                               ; preds = %77, %74, %54
  %56 = load i64, ptr %5, align 8
  %57 = icmp sge i64 %56, 0
  br i1 %57, label %58, label %61

58:                                               ; preds = %55
  %59 = load i64, ptr %6, align 8
  %60 = icmp eq i64 %59, -1
  br label %61

61:                                               ; preds = %58, %55
  %62 = phi i1 [ false, %55 ], [ %60, %58 ]
  br i1 %62, label %63, label %88

63:                                               ; preds = %61
  %64 = load i64, ptr %5, align 8
  %65 = ashr i64 %64, 6
  %66 = add nsw i64 %65, 2
  %67 = trunc i64 %66 to i32
  store i32 %67, ptr %7, align 4
  %68 = load ptr, ptr %4, align 8
  %69 = load i32, ptr %7, align 4
  %70 = sext i32 %69 to i64
  %71 = getelementptr inbounds i64, ptr %68, i64 %70
  %72 = load i64, ptr %71, align 8
  %73 = icmp eq i64 %72, 0
  br i1 %73, label %74, label %77

74:                                               ; preds = %63
  %75 = load i64, ptr %5, align 8
  %76 = sub i64 %75, 64
  store i64 %76, ptr %5, align 8
  br label %55, !llvm.loop !32

77:                                               ; preds = %63
  %78 = load i64, ptr %5, align 8
  %79 = load ptr, ptr %4, align 8
  %80 = load i32, ptr %7, align 4
  %81 = sext i32 %80 to i64
  %82 = getelementptr inbounds i64, ptr %79, i64 %81
  %83 = load i64, ptr %82, align 8
  %84 = call i64 @llvm.ctlz.i64(i64 %83, i1 true)
  %85 = trunc i64 %84 to i32
  %86 = sext i32 %85 to i64
  %87 = sub nsw i64 %78, %86
  store i64 %87, ptr %6, align 8
  br label %55, !llvm.loop !32

88:                                               ; preds = %61
  %89 = load i64, ptr %6, align 8
  store i64 %89, ptr %3, align 8
  store i32 1, ptr %8, align 4
  br label %90

90:                                               ; preds = %88, %19
  call void @llvm.lifetime.end.p0(i64 4, ptr %7) #12
  call void @llvm.lifetime.end.p0(i64 8, ptr %6) #12
  %91 = load i64, ptr %3, align 8
  ret i64 %91
}

; Function Attrs: nounwind uwtable
define dso_local i64 @bit_ffs_from_bit(ptr noundef %0, i64 noundef %1) #0 {
  %3 = alloca i64, align 8
  %4 = alloca ptr, align 8
  %5 = alloca i64, align 8
  %6 = alloca i64, align 8
  %7 = alloca i32, align 4
  %8 = alloca i64, align 8
  %9 = alloca i64, align 8
  %10 = alloca i32, align 4
  store ptr %0, ptr %4, align 8
  store i64 %1, ptr %5, align 8
  call void @llvm.lifetime.start.p0(i64 8, ptr %6) #12
  store i64 -1, ptr %6, align 8
  call void @llvm.lifetime.start.p0(i64 4, ptr %7) #12
  call void @llvm.lifetime.start.p0(i64 8, ptr %8) #12
  br label %11

11:                                               ; preds = %2
  br label %12

12:                                               ; preds = %11
  br label %13

13:                                               ; preds = %12
  %14 = load i64, ptr %5, align 8
  %15 = urem i64 %14, 64
  %16 = icmp ne i64 %15, 0
  br i1 %16, label %17, label %45

17:                                               ; preds = %13
  %18 = load i64, ptr %5, align 8
  %19 = load ptr, ptr %4, align 8
  %20 = getelementptr inbounds i64, ptr %19, i64 1
  %21 = load i64, ptr %20, align 8
  %22 = icmp slt i64 %18, %21
  br i1 %22, label %23, label %45

23:                                               ; preds = %17
  call void @llvm.lifetime.start.p0(i64 8, ptr %9) #12
  %24 = load i64, ptr %5, align 8
  %25 = and i64 %24, 63
  %26 = shl i64 1, %25
  %27 = sub nsw i64 %26, 1
  %28 = xor i64 %27, -1
  store i64 %28, ptr %9, align 8
  %29 = load i64, ptr %5, align 8
  %30 = urem i64 %29, 64
  %31 = load i64, ptr %5, align 8
  %32 = sub i64 %31, %30
  store i64 %32, ptr %5, align 8
  %33 = load i64, ptr %5, align 8
  %34 = ashr i64 %33, 6
  %35 = add nsw i64 %34, 2
  %36 = trunc i64 %35 to i32
  store i32 %36, ptr %7, align 4
  %37 = load ptr, ptr %4, align 8
  %38 = load i32, ptr %7, align 4
  %39 = sext i32 %38 to i64
  %40 = getelementptr inbounds i64, ptr %37, i64 %39
  %41 = load i64, ptr %40, align 8
  %42 = load i64, ptr %9, align 8
  %43 = and i64 %41, %42
  store i64 %43, ptr %8, align 8
  store i32 4, ptr %10, align 4
  call void @llvm.lifetime.end.p0(i64 8, ptr %9) #12
  %44 = load i32, ptr %10, align 4
  switch i32 %44, label %89 [
    i32 4, label %67
  ]

45:                                               ; preds = %17, %13
  br label %46

46:                                               ; preds = %73, %70, %45
  %47 = load i64, ptr %5, align 8
  %48 = load ptr, ptr %4, align 8
  %49 = getelementptr inbounds i64, ptr %48, i64 1
  %50 = load i64, ptr %49, align 8
  %51 = icmp slt i64 %47, %50
  br i1 %51, label %52, label %55

52:                                               ; preds = %46
  %53 = load i64, ptr %6, align 8
  %54 = icmp eq i64 %53, -1
  br label %55

55:                                               ; preds = %52, %46
  %56 = phi i1 [ false, %46 ], [ %54, %52 ]
  br i1 %56, label %57, label %80

57:                                               ; preds = %55
  %58 = load i64, ptr %5, align 8
  %59 = ashr i64 %58, 6
  %60 = add nsw i64 %59, 2
  %61 = trunc i64 %60 to i32
  store i32 %61, ptr %7, align 4
  %62 = load ptr, ptr %4, align 8
  %63 = load i32, ptr %7, align 4
  %64 = sext i32 %63 to i64
  %65 = getelementptr inbounds i64, ptr %62, i64 %64
  %66 = load i64, ptr %65, align 8
  store i64 %66, ptr %8, align 8
  br label %67

67:                                               ; preds = %57, %23
  %68 = load i64, ptr %8, align 8
  %69 = icmp eq i64 %68, 0
  br i1 %69, label %70, label %73

70:                                               ; preds = %67
  %71 = load i64, ptr %5, align 8
  %72 = add i64 %71, 64
  store i64 %72, ptr %5, align 8
  br label %46, !llvm.loop !43

73:                                               ; preds = %67
  %74 = load i64, ptr %5, align 8
  %75 = load i64, ptr %8, align 8
  %76 = call i64 @llvm.cttz.i64(i64 %75, i1 true)
  %77 = trunc i64 %76 to i32
  %78 = sext i32 %77 to i64
  %79 = add nsw i64 %74, %78
  store i64 %79, ptr %6, align 8
  br label %46, !llvm.loop !43

80:                                               ; preds = %55
  %81 = load i64, ptr %6, align 8
  %82 = load ptr, ptr %4, align 8
  %83 = getelementptr inbounds i64, ptr %82, i64 1
  %84 = load i64, ptr %83, align 8
  %85 = icmp slt i64 %81, %84
  br i1 %85, label %86, label %88

86:                                               ; preds = %80
  %87 = load i64, ptr %6, align 8
  store i64 %87, ptr %3, align 8
  store i32 1, ptr %10, align 4
  br label %89

88:                                               ; preds = %80
  store i64 -1, ptr %3, align 8
  store i32 1, ptr %10, align 4
  br label %89

89:                                               ; preds = %88, %86, %23
  call void @llvm.lifetime.end.p0(i64 8, ptr %8) #12
  call void @llvm.lifetime.end.p0(i64 4, ptr %7) #12
  call void @llvm.lifetime.end.p0(i64 8, ptr %6) #12
  %90 = load i64, ptr %3, align 8
  ret i64 %90
}

; Function Attrs: nounwind uwtable
define dso_local void @bit_nset(ptr noundef %0, i64 noundef %1, i64 noundef %2) #0 {
  %4 = alloca ptr, align 8
  %5 = alloca i64, align 8
  %6 = alloca i64, align 8
  store ptr %0, ptr %4, align 8
  store i64 %1, ptr %5, align 8
  store i64 %2, ptr %6, align 8
  br label %7

7:                                                ; preds = %3
  br label %8

8:                                                ; preds = %7
  br label %9

9:                                                ; preds = %8
  br label %10

10:                                               ; preds = %9
  br label %11

11:                                               ; preds = %10
  br label %12

12:                                               ; preds = %11
  br label %13

13:                                               ; preds = %23, %12
  %14 = load i64, ptr %5, align 8
  %15 = load i64, ptr %6, align 8
  %16 = icmp sle i64 %14, %15
  br i1 %16, label %17, label %21

17:                                               ; preds = %13
  %18 = load i64, ptr %5, align 8
  %19 = srem i64 %18, 8
  %20 = icmp sgt i64 %19, 0
  br label %21

21:                                               ; preds = %17, %13
  %22 = phi i1 [ false, %13 ], [ %20, %17 ]
  br i1 %22, label %23, label %27

23:                                               ; preds = %21
  %24 = load ptr, ptr %4, align 8
  %25 = load i64, ptr %5, align 8
  %26 = add nsw i64 %25, 1
  store i64 %26, ptr %5, align 8
  call void @bit_set(ptr noundef %24, i64 noundef %25)
  br label %13, !llvm.loop !12

27:                                               ; preds = %21
  br label %28

28:                                               ; preds = %39, %27
  %29 = load i64, ptr %6, align 8
  %30 = load i64, ptr %5, align 8
  %31 = icmp sge i64 %29, %30
  br i1 %31, label %32, label %37

32:                                               ; preds = %28
  %33 = load i64, ptr %6, align 8
  %34 = add nsw i64 %33, 1
  %35 = srem i64 %34, 8
  %36 = icmp sgt i64 %35, 0
  br label %37

37:                                               ; preds = %32, %28
  %38 = phi i1 [ false, %28 ], [ %36, %32 ]
  br i1 %38, label %39, label %43

39:                                               ; preds = %37
  %40 = load ptr, ptr %4, align 8
  %41 = load i64, ptr %6, align 8
  %42 = add nsw i64 %41, -1
  store i64 %42, ptr %6, align 8
  call void @bit_set(ptr noundef %40, i64 noundef %41)
  br label %28, !llvm.loop !13

43:                                               ; preds = %37
  %44 = load i64, ptr %6, align 8
  %45 = load i64, ptr %5, align 8
  %46 = icmp sgt i64 %44, %45
  br i1 %46, label %47, label %58

47:                                               ; preds = %43
  %48 = load ptr, ptr %4, align 8
  %49 = getelementptr inbounds i64, ptr %48, i64 2
  %50 = load i64, ptr %5, align 8
  %51 = ashr i64 %50, 3
  %52 = getelementptr inbounds i8, ptr %49, i64 %51
  %53 = load i64, ptr %6, align 8
  %54 = load i64, ptr %5, align 8
  %55 = sub nsw i64 %53, %54
  %56 = add nsw i64 %55, 1
  %57 = sdiv i64 %56, 8
  call void @llvm.memset.p0.i64(ptr align 1 %52, i8 -1, i64 %57, i1 false)
  br label %58

58:                                               ; preds = %47, %43
  ret void
}

; Function Attrs: nounwind uwtable
define dso_local i64 @bit_fls(ptr noundef %0) #0 {
  %2 = alloca ptr, align 8
  %3 = alloca i64, align 8
  store ptr %0, ptr %2, align 8
  call void @llvm.lifetime.start.p0(i64 8, ptr %3) #12
  %4 = load ptr, ptr %2, align 8
  %5 = getelementptr inbounds i64, ptr %4, i64 1
  %6 = load i64, ptr %5, align 8
  %7 = sub nsw i64 %6, 1
  store i64 %7, ptr %3, align 8
  %8 = load ptr, ptr %2, align 8
  %9 = load i64, ptr %3, align 8
  %10 = call i64 @bit_fls_from_bit(ptr noundef %8, i64 noundef %9)
  call void @llvm.lifetime.end.p0(i64 8, ptr %3) #12
  ret i64 %10
}

; Function Attrs: nounwind uwtable
define dso_local i64 @bit_ffs(ptr noundef %0) #0 {
  %2 = alloca ptr, align 8
  store ptr %0, ptr %2, align 8
  %3 = load ptr, ptr %2, align 8
  %4 = call i64 @bit_ffs_from_bit(ptr noundef %3, i64 noundef 0)
  ret i64 %4
}

; Function Attrs: nounwind uwtable
define dso_local void @bit_fill_gaps(ptr noundef %0) #0 {
  %2 = alloca ptr, align 8
  %3 = alloca i64, align 8
  %4 = alloca i64, align 8
  %5 = alloca i32, align 4
  store ptr %0, ptr %2, align 8
  call void @llvm.lifetime.start.p0(i64 8, ptr %3) #12
  call void @llvm.lifetime.start.p0(i64 8, ptr %4) #12
  br label %6

6:                                                ; preds = %1
  br label %7

7:                                                ; preds = %6
  br label %8

8:                                                ; preds = %7
  %9 = load ptr, ptr %2, align 8
  %10 = call i64 @bit_ffs(ptr noundef %9)
  store i64 %10, ptr %3, align 8
  %11 = load i64, ptr %3, align 8
  %12 = icmp eq i64 %11, -1
  br i1 %12, label %13, label %14

13:                                               ; preds = %8
  store i32 1, ptr %5, align 4
  br label %20

14:                                               ; preds = %8
  %15 = load ptr, ptr %2, align 8
  %16 = call i64 @bit_fls(ptr noundef %15)
  store i64 %16, ptr %4, align 8
  %17 = load ptr, ptr %2, align 8
  %18 = load i64, ptr %3, align 8
  %19 = load i64, ptr %4, align 8
  call void @bit_nset(ptr noundef %17, i64 noundef %18, i64 noundef %19)
  store i32 1, ptr %5, align 4
  br label %20

20:                                               ; preds = %14, %13
  call void @llvm.lifetime.end.p0(i64 8, ptr %4) #12
  call void @llvm.lifetime.end.p0(i64 8, ptr %3) #12
  ret void
}