; Function Attrs: nofree norecurse nosync nounwind memory(argmem: readwrite) uwtable
define dso_local void @bit_fill_gaps(ptr noundef captures(none) %0) #2 {
  %.phi.trans.insert.i.i = getelementptr inbounds nuw i8, ptr %0, i64 8
  %.pre.i.i = load i64, ptr %.phi.trans.insert.i.i, align 8
  %2 = icmp sgt i64 %.pre.i.i, 0
  br i1 %2, label %.lr.ph.i, label %bit_nset.exit

.lr.ph.i:                                         ; preds = %1, %._crit_edge.i.outer.i
  %.127.i.ph6.i = phi i64 [ %11, %._crit_edge.i.outer.i ], [ 0, %1 ]
  %3 = shl i64 %.127.i.ph6.i, 26
  %sext31.i.i = add i64 %3, 8589934592
  %4 = ashr exact i64 %sext31.i.i, 29
  %5 = getelementptr inbounds i8, ptr %0, i64 %4
  %6 = load i64, ptr %5, align 8
  %7 = icmp eq i64 %6, 0
  br i1 %7, label %._crit_edge.i.outer.i, label %.lr.ph.split.i

.lr.ph.split.i:                                   ; preds = %.lr.ph.i
  %8 = tail call range(i64 0, 65) i64 @llvm.cttz.i64(i64 %6, i1 true)
  %9 = or disjoint i64 %8, %.127.i.ph6.i
  %10 = icmp eq i64 %9, -1
  br i1 %10, label %._crit_edge.i.i, label %bit_ffs.exit, !llvm.loop !16

._crit_edge.i.i:                                  ; preds = %.lr.ph.split.i, %._crit_edge.i.i
  br label %._crit_edge.i.i

._crit_edge.i.outer.i:                            ; preds = %.lr.ph.i
  %11 = add i64 %.127.i.ph6.i, 64
  %12 = icmp slt i64 %11, %.pre.i.i
  br i1 %12, label %.lr.ph.i, label %bit_nset.exit, !llvm.loop !16

bit_ffs.exit:                                     ; preds = %.lr.ph.split.i
  %.not = icmp slt i64 %9, %.pre.i.i
  br i1 %.not, label %.preheader.i.i, label %bit_nset.exit

.preheader.i.i:                                   ; preds = %bit_ffs.exit
  %invariant.gep.i.i = getelementptr inbounds nuw i8, ptr %0, i64 16
  br label %.lr.ph.i.i

.lr.ph.i.i:                                       ; preds = %.preheader.i.i, %21
  %.02025.i.in.i = phi i64 [ %.02025.i.i, %21 ], [ %.pre.i.i, %.preheader.i.i ]
  %.02025.i.i = add nsw i64 %.02025.i.in.i, -1
  %13 = lshr i64 %.02025.i.i, 6
  %14 = lshr i64 %.02025.i.in.i, 6
  %15 = icmp eq i64 %13, %14
  br i1 %15, label %16, label %.lr.ph33.i.i

16:                                               ; preds = %.lr.ph.i.i
  %gep.i.i = getelementptr inbounds nuw i64, ptr %invariant.gep.i.i, i64 %13
  %17 = load i64, ptr %gep.i.i, align 8
  %18 = and i64 %.02025.i.i, 63
  %19 = shl nuw i64 1, %18
  %20 = and i64 %17, %19
  %.not.i.i = icmp eq i64 %20, 0
  br i1 %.not.i.i, label %21, label %bit_fls.exit

21:                                               ; preds = %16
  %22 = icmp samesign ugt i64 %.02025.i.in.i, 1
  br i1 %22, label %.lr.ph.i.i, label %bit_fls.exit, !llvm.loop !32

.lr.ph33.i.i:                                     ; preds = %.lr.ph.i.i, %.outer.i.i
  %.121.ph39.i.i = phi i64 [ %31, %.outer.i.i ], [ %.02025.i.i, %.lr.ph.i.i ]
  %23 = shl i64 %.121.ph39.i.i, 26
  %sext.i.i = add i64 %23, 8589934592
  %24 = ashr i64 %sext.i.i, 32
  %25 = getelementptr inbounds i64, ptr %0, i64 %24
  %26 = load i64, ptr %25, align 8
  %27 = icmp eq i64 %26, 0
  br i1 %27, label %.outer.i.i, label %.lr.ph33.split.i.i

.lr.ph33.split.i.i:                               ; preds = %.lr.ph33.i.i
  %28 = tail call range(i64 0, 65) i64 @llvm.ctlz.i64(i64 %26, i1 true)
  %29 = sub nsw i64 %.121.ph39.i.i, %28
  %30 = icmp eq i64 %29, -1
  br i1 %30, label %.lr.ph33.split.split.i.i, label %bit_fls.exit, !llvm.loop !33

.lr.ph33.split.split.i.i:                         ; preds = %.lr.ph33.split.i.i, %.lr.ph33.split.split.i.i
  br label %.lr.ph33.split.split.i.i

.outer.i.i:                                       ; preds = %.lr.ph33.i.i
  %31 = add nsw i64 %.121.ph39.i.i, -64
  %32 = icmp sgt i64 %.121.ph39.i.i, 63
  br i1 %32, label %.lr.ph33.i.i, label %bit_fls.exit, !llvm.loop !33

bit_fls.exit:                                     ; preds = %16, %21, %.outer.i.i, %.lr.ph33.split.i.i
  %.0.i.i = phi i64 [ %29, %.lr.ph33.split.i.i ], [ -1, %.outer.i.i ], [ -1, %21 ], [ %.02025.i.i, %16 ]
  %invariant.gep.i = getelementptr i8, ptr %0, i64 16
  %.not20.i = icmp sle i64 %9, %.0.i.i
  %33 = and i64 %9, -9223372036854775801
  %34 = icmp sgt i64 %33, 0
  %or.cond21.i = and i1 %34, %.not20.i
  br i1 %or.cond21.i, label %.lr.ph.i5, label %.critedge.preheader.i

.critedge.preheader.i:                            ; preds = %.lr.ph.i5, %bit_fls.exit
  %.017.lcssa.i = phi i64 [ %9, %bit_fls.exit ], [ %35, %.lr.ph.i5 ]
  %.not1825.i = icmp slt i64 %.0.i.i, %.017.lcssa.i
  br i1 %.not1825.i, label %.critedge2.i, label %.lr.ph27.i

.lr.ph.i5:                                        ; preds = %bit_fls.exit, %.lr.ph.i5
  %.01722.i = phi i64 [ %35, %.lr.ph.i5 ], [ %9, %bit_fls.exit ]
  %35 = add nsw i64 %.01722.i, 1
  %36 = and i64 %.01722.i, 63
  %37 = shl nuw i64 1, %36
  %38 = ashr i64 %.01722.i, 6
  %gep.i = getelementptr i64, ptr %invariant.gep.i, i64 %38
  %39 = load i64, ptr %gep.i, align 8
  %40 = or i64 %37, %39
  store i64 %40, ptr %gep.i, align 8
  %.not.i = icmp slt i64 %.01722.i, %.0.i.i
  %41 = and i64 %35, -9223372036854775801
  %42 = icmp sgt i64 %41, 0
  %or.cond.i = and i1 %.not.i, %42
  br i1 %or.cond.i, label %.lr.ph.i5, label %.critedge.preheader.i, !llvm.loop !12

.lr.ph27.i:                                       ; preds = %.critedge.preheader.i, %.critedge.i
  %.026.i = phi i64 [ %46, %.critedge.i ], [ %.0.i.i, %.critedge.preheader.i ]
  %43 = add nsw i64 %.026.i, 1
  %44 = and i64 %43, -9223372036854775801
  %45 = icmp sgt i64 %44, 0
  br i1 %45, label %.critedge.i, label %.critedge2.i

.critedge.i:                                      ; preds = %.lr.ph27.i
  %46 = add nsw i64 %.026.i, -1
  %47 = and i64 %.026.i, 63
  %48 = shl nuw i64 1, %47
  %49 = ashr i64 %.026.i, 6
  %gep24.i = getelementptr i64, ptr %invariant.gep.i, i64 %49
  %50 = load i64, ptr %gep24.i, align 8
  %51 = or i64 %50, %48
  store i64 %51, ptr %gep24.i, align 8
  %.not18.not.i = icmp sgt i64 %.026.i, %.017.lcssa.i
  br i1 %.not18.not.i, label %.lr.ph27.i, label %.critedge2.i, !llvm.loop !13

.critedge2.i:                                     ; preds = %.critedge.i, %.lr.ph27.i, %.critedge.preheader.i
  %.0.lcssa.i = phi i64 [ %.0.i.i, %.critedge.preheader.i ], [ %.026.i, %.lr.ph27.i ], [ %46, %.critedge.i ]
  %52 = icmp sgt i64 %.0.lcssa.i, %.017.lcssa.i
  br i1 %52, label %53, label %bit_nset.exit

53:                                               ; preds = %.critedge2.i
  %54 = ashr i64 %.017.lcssa.i, 3
  %55 = getelementptr inbounds i8, ptr %invariant.gep.i, i64 %54
  %reass.sub = sub i64 %.0.lcssa.i, %.017.lcssa.i
  %56 = add i64 %reass.sub, 1
  %57 = sdiv i64 %56, 8
  tail call void @llvm.memset.p0.i64(ptr nonnull align 1 %55, i8 -1, i64 %57, i1 false)
  br label %bit_nset.exit

bit_nset.exit:                                    ; preds = %._crit_edge.i.outer.i, %1, %53, %.critedge2.i, %bit_ffs.exit
  ret void
}